target datalayout = "e-m:e-p270:32:32-p271:32:32-p272:64:64-i64:64-i128:128-f80:128-n8:16:32:64-S128"
target triple = "x86_64-pc-linux-gnu"

%struct.QMetaObject = type { %struct.anon }
%struct.anon = type { %"struct.QMetaObject::SuperData", ptr, ptr, ptr, ptr, ptr }
%"struct.QMetaObject::SuperData" = type { ptr }
%class.QString = type { ptr }
%class.LayerDialog = type { %class.QDockWidget, ptr, ptr, ptr, ptr, ptr, %class.QMap, i8, [4 x %class.QString], [4 x %class.QMap.16], i32, %"class.std::vector.17", i32, ptr, ptr, i32, ptr, ptr, ptr }
%class.QDockWidget = type { %class.QWidget }
%class.QWidget = type { %class.QObject, %class.QPaintDevice, ptr }
%class.QObject = type { ptr, %class.QScopedPointer }
%class.QScopedPointer = type { ptr }
%class.QPaintDevice = type { ptr, i16, ptr }
%class.QMap = type { ptr }
%class.QMap.16 = type { ptr }
%"class.std::vector.17" = type { %"struct.std::_Vector_base.18" }
%"struct.std::_Vector_base.18" = type { %"struct.std::_Vector_base<int, std::allocator<int>>::_Vector_impl" }
%"struct.std::_Vector_base<int, std::allocator<int>>::_Vector_impl" = type { %"struct.std::_Vector_base<int, std::allocator<int>>::_Vector_impl_data" }
%"struct.std::_Vector_base<int, std::allocator<int>>::_Vector_impl_data" = type { ptr, ptr, ptr }
%class.Ui_layerDialog = type { ptr, ptr, ptr, ptr, ptr, ptr, ptr, ptr, ptr, ptr, ptr, ptr, ptr, ptr, ptr, ptr, ptr, ptr, ptr, ptr, ptr, ptr, ptr, ptr, ptr, ptr, ptr, ptr, ptr }
%class.QTimer = type <{ %class.QObject, i32, i32, i32, i8, [3 x i8] }>

@.str.89 = private unnamed_addr constant [3 x i8] c"||\00", align 1
@.str.90 = private unnamed_addr constant [16 x i8] c"Pause animation\00", align 1
@_ZN11LayerDialog16staticMetaObjectE = external global %struct.QMetaObject, align 8

; Function Attrs: mustprogress uwtable
define linkonce_odr void @_ZN11LayerDialog2trEPKcS1_i(ptr dead_on_unwind noalias writable sret(%class.QString) align 8 %0, ptr noundef %1, ptr noundef %2, i32 noundef %3) #5 comdat align 2 {
  %5 = alloca ptr, align 8
  %6 = alloca ptr, align 8
  %7 = alloca ptr, align 8
  %8 = alloca i32, align 4
  store ptr %0, ptr %5, align 8
  store ptr %1, ptr %6, align 8
  store ptr %2, ptr %7, align 8
  store i32 %3, ptr %8, align 4
  %9 = load ptr, ptr %6, align 8
  %10 = load ptr, ptr %7, align 8
  %11 = load i32, ptr %8, align 4
  call void @_ZNK11QMetaObject2trEPKcS1_i(ptr dead_on_unwind writable sret(%class.QString) align 8 %0, ptr noundef nonnull align 8 dereferenceable(48) @_ZN11LayerDialog16staticMetaObjectE, ptr noundef %9, ptr noundef %10, i32 noundef %11)
  ret void
}

; Function Attrs: mustprogress nounwind uwtable
define linkonce_odr noundef zeroext i1 @_ZNK6QTimer8isActiveEv(ptr noundef nonnull align 8 dereferenceable(29) %0) #0 comdat align 2 {
  %2 = alloca ptr, align 8
  store ptr %0, ptr %2, align 8
  %3 = load ptr, ptr %2, align 8
  %4 = getelementptr inbounds %class.QTimer, ptr %3, i32 0, i32 1
  %5 = load i32, ptr %4, align 8
  %6 = icmp sge i32 %5, 0
  ret i1 %6
}

; Function Attrs: mustprogress uwtable
define void @_ZN11LayerDialog13clickAnimPlayEv(ptr noundef nonnull align 8 dereferenceable(256) %0) #5 align 2 personality ptr @__gxx_personality_v0 {
  %2 = alloca ptr, align 8
  %3 = alloca %class.QString, align 8
  %4 = alloca ptr, align 8
  %5 = alloca i32, align 4
  %6 = alloca %class.QString, align 8
  store ptr %0, ptr %2, align 8
  %7 = load ptr, ptr %2, align 8
  %8 = getelementptr inbounds %class.LayerDialog, ptr %7, i32 0, i32 13
  %9 = load ptr, ptr %8, align 8
  %10 = call noundef zeroext i1 @_ZNK6QTimer8isActiveEv(ptr noundef nonnull align 8 dereferenceable(29) %9)
  br i1 %10, label %37, label %11

11:                                               ; preds = %1
  %12 = call noundef zeroext i1 @_ZN11LayerDialog9startAnimEv(ptr noundef nonnull align 8 dereferenceable(256) %7)
  br i1 %12, label %13, label %37

13:                                               ; preds = %11
  %14 = getelementptr inbounds %class.LayerDialog, ptr %7, i32 0, i32 1
  %15 = load ptr, ptr %14, align 8
  %16 = getelementptr inbounds %class.Ui_layerDialog, ptr %15, i32 0, i32 12
  %17 = load ptr, ptr %16, align 8
  call void @_ZN11LayerDialog2trEPKcS1_i(ptr dead_on_unwind writable sret(%class.QString) align 8 %3, ptr noundef @.str.89, ptr noundef null, i32 noundef -1)
  invoke void @_ZN15QAbstractButton7setTextERK7QString(ptr noundef nonnull align 8 dereferenceable(48) %17, ptr noundef nonnull align 8 dereferenceable(8) %3)
          to label %18 unwind label %29

18:                                               ; preds = %13
  call void @_ZN7QStringD2Ev(ptr noundef nonnull align 8 dereferenceable(8) %3) #4
  %19 = getelementptr inbounds %class.LayerDialog, ptr %7, i32 0, i32 1
  %20 = load ptr, ptr %19, align 8
  %21 = getelementptr inbounds %class.Ui_layerDialog, ptr %20, i32 0, i32 12
  %22 = load ptr, ptr %21, align 8
  call void @_ZN11LayerDialog2trEPKcS1_i(ptr dead_on_unwind writable sret(%class.QString) align 8 %6, ptr noundef @.str.90, ptr noundef null, i32 noundef -1)
  invoke void @_ZN7QWidget10setToolTipERK7QString(ptr noundef nonnull align 8 dereferenceable(48) %22, ptr noundef nonnull align 8 dereferenceable(8) %6)
          to label %23 unwind label %33

23:                                               ; preds = %18
  call void @_ZN7QStringD2Ev(ptr noundef nonnull align 8 dereferenceable(8) %6) #4
  %24 = call noundef i32 @_ZN11LayerDialog8stepAnimEi(ptr noundef nonnull align 8 dereferenceable(256) %7, i32 noundef 1)
  %25 = getelementptr inbounds %class.LayerDialog, ptr %7, i32 0, i32 13
  %26 = load ptr, ptr %25, align 8
  %27 = getelementptr inbounds %class.LayerDialog, ptr %7, i32 0, i32 12
  %28 = load i32, ptr %27, align 8
  call void @_ZN6QTimer5startEi(ptr noundef nonnull align 8 dereferenceable(29) %26, i32 noundef %28)
  br label %38

29:                                               ; preds = %13
  %30 = landingpad { ptr, i32 }
          cleanup
  %31 = extractvalue { ptr, i32 } %30, 0
  store ptr %31, ptr %4, align 8
  %32 = extractvalue { ptr, i32 } %30, 1
  store i32 %32, ptr %5, align 4
  call void @_ZN7QStringD2Ev(ptr noundef nonnull align 8 dereferenceable(8) %3) #4
  br label %39

33:                                               ; preds = %18
  %34 = landingpad { ptr, i32 }
          cleanup
  %35 = extractvalue { ptr, i32 } %34, 0
  store ptr %35, ptr %4, align 8
  %36 = extractvalue { ptr, i32 } %34, 1
  store i32 %36, ptr %5, align 4
  call void @_ZN7QStringD2Ev(ptr noundef nonnull align 8 dereferenceable(8) %6) #4
  br label %39

37:                                               ; preds = %11, %1
  call void @_ZN11LayerDialog9pauseAnimEv(ptr noundef nonnull align 8 dereferenceable(256) %7)
  br label %38

38:                                               ; preds = %37, %23
  ret void

39:                                               ; preds = %33, %29
  %40 = load ptr, ptr %4, align 8
  %41 = load i32, ptr %5, align 4
  %42 = insertvalue { ptr, i32 } poison, ptr %40, 0
  %43 = insertvalue { ptr, i32 } %42, i32 %41, 1
  resume { ptr, i32 } %43
}